(lp0
(lp1
VOOO
p2
aI0
aa(lp3
VOOOOOO
p4
aI8
aa(lp5
VALLAN
p6
aI5
aa(lp7
VGBLFNGBKF
p8
aI0
aa(lp9
VGBLFNGBKF
p10
aI0
aa(lp11
VGBLFNGBKF
p12
aI0
aa(lp13
VGBLFNGBKF
p14
aI0
aa(lp15
VGBLFNGBKF
p16
aI0
aa(lp17
VGBLFNGBKF
p18
aI3
aa(lp19
VGBLFNGBKF
p20
aI0
aa(lp21
VOOEOF
p22
aI0
aa(lp23
VD
p24
aI13
aa(lp25
VD
p26
aI11
aa(lp27
VD
p28
aI3
aa(lp29
VD
p30
aI8
aa(lp31
VD
p32
aI8
aa(lp33
VUFBUANE
p34
aI0
aa(lp35
VUFBUANE
p36
aI0
aa(lp37
VUFBUANE
p38
aI0
aa(lp39
VHASAM
p40
aI6
aa(lp41
VHASAN
p42
aI40
aa(lp43
VHASAN
p44
aI25
aa(lp45
VHASN
p46
aI26
aa(lp47
VFYF
p48
aI0
aa(lp49
VHASN
p50
aI3
aa(lp51
VHASN
p52
aI18
aa(lp53
VNIRM
p54
aI18
aa(lp55
VNIRM
p56
aI87
aa(lp57
VHASAN
p58
aI3
aa(lp59
VBOB
p60
aI0
aa.